target datalayout = "e-m:e-p270:32:32-p271:32:32-p272:64:64-i64:64-i128:128-f80:128-n8:16:32:64-S128"
target triple = "x86_64-pc-linux-gnu"

%"class.pxrInternal_v0_24__pxrReserved__::pxr_double_conversion::Bignum" = type { i16, i16, [128 x i32] }
%"class.pxrInternal_v0_24__pxrReserved__::pxr_double_conversion::Vector" = type <{ ptr, i32, [4 x i8] }>

; Function Attrs: mustprogress nounwind uwtable
define void @_ZN32pxrInternal_v0_24__pxrReserved__21pxr_double_conversion6Bignum5ClampEv(ptr noundef nonnull align 4 dereferenceable(516) %0) #0 align 2 {
  %2 = alloca ptr, align 8
  store ptr %0, ptr %2, align 8
  %3 = load ptr, ptr %2, align 8
  br label %4

4:                                                ; preds = %19, %1
  %5 = getelementptr inbounds nuw %"class.pxrInternal_v0_24__pxrReserved__::pxr_double_conversion::Bignum", ptr %3, i32 0, i32 0
  %6 = load i16, ptr %5, align 4
  %7 = sext i16 %6 to i32
  %8 = icmp sgt i32 %7, 0
  br i1 %8, label %9, label %17

9:                                                ; preds = %4
  %10 = getelementptr inbounds nuw %"class.pxrInternal_v0_24__pxrReserved__::pxr_double_conversion::Bignum", ptr %3, i32 0, i32 0
  %11 = load i16, ptr %10, align 4
  %12 = sext i16 %11 to i32
  %13 = sub nsw i32 %12, 1
  %14 = call noundef nonnull align 4 dereferenceable(4) ptr @_ZN32pxrInternal_v0_24__pxrReserved__21pxr_double_conversion6Bignum8RawBigitEi(ptr noundef nonnull align 4 dereferenceable(516) %3, i32 noundef %13)
  %15 = load i32, ptr %14, align 4
  %16 = icmp eq i32 %15, 0
  br label %17

17:                                               ; preds = %9, %4
  %18 = phi i1 [ false, %4 ], [ %16, %9 ]
  br i1 %18, label %19, label %23

19:                                               ; preds = %17
  %20 = getelementptr inbounds nuw %"class.pxrInternal_v0_24__pxrReserved__::pxr_double_conversion::Bignum", ptr %3, i32 0, i32 0
  %21 = load i16, ptr %20, align 4
  %22 = add i16 %21, -1
  store i16 %22, ptr %20, align 4
  br label %4, !llvm.loop !11

23:                                               ; preds = %17
  %24 = getelementptr inbounds nuw %"class.pxrInternal_v0_24__pxrReserved__::pxr_double_conversion::Bignum", ptr %3, i32 0, i32 0
  %25 = load i16, ptr %24, align 4
  %26 = sext i16 %25 to i32
  %27 = icmp eq i32 %26, 0
  br i1 %27, label %28, label %30

28:                                               ; preds = %23
  %29 = getelementptr inbounds nuw %"class.pxrInternal_v0_24__pxrReserved__::pxr_double_conversion::Bignum", ptr %3, i32 0, i32 1
  store i16 0, ptr %29, align 2
  br label %30

30:                                               ; preds = %28, %23
  ret void
}

; Function Attrs: mustprogress nounwind uwtable
define linkonce_odr void @_ZN32pxrInternal_v0_24__pxrReserved__21pxr_double_conversion6VectorIKcE8pop_backEv(ptr noundef nonnull align 8 dereferenceable(12) %0) #0 comdat align 2 {
  %2 = alloca ptr, align 8
  store ptr %0, ptr %2, align 8
  %3 = load ptr, ptr %2, align 8
  %4 = getelementptr inbounds nuw %"class.pxrInternal_v0_24__pxrReserved__::pxr_double_conversion::Vector", ptr %3, i32 0, i32 1
  %5 = load i32, ptr %4, align 8
  %6 = add nsw i32 %5, -1
  store i32 %6, ptr %4, align 8
  ret void
}

; Function Attrs: mustprogress nounwind uwtable
define noundef nonnull align 4 dereferenceable(4) ptr @_ZN32pxrInternal_v0_24__pxrReserved__21pxr_double_conversion6Bignum8RawBigitEi(ptr noundef nonnull align 4 dereferenceable(516) %0, i32 noundef %1) #0 align 2 {
  %3 = alloca ptr, align 8
  %4 = alloca i32, align 4
  store ptr %0, ptr %3, align 8
  store i32 %1, ptr %4, align 4
  %5 = load ptr, ptr %3, align 8
  %6 = getelementptr inbounds nuw %"class.pxrInternal_v0_24__pxrReserved__::pxr_double_conversion::Bignum", ptr %5, i32 0, i32 2
  %7 = load i32, ptr %4, align 4
  %8 = sext i32 %7 to i64
  %9 = getelementptr inbounds [128 x i32], ptr %6, i64 0, i64 %8
  ret ptr %9
}

; Function Attrs: mustprogress nounwind uwtable
define internal noundef i64 @_ZN32pxrInternal_v0_24__pxrReserved__21pxr_double_conversionL12HexCharValueEi(i32 noundef %0) #0 {
  %2 = alloca i64, align 8
  %3 = alloca i32, align 4
  store i32 %0, ptr %3, align 4
  %4 = load i32, ptr %3, align 4
  %5 = icmp sle i32 48, %4
  br i1 %5, label %6, label %13

6:                                                ; preds = %1
  %7 = load i32, ptr %3, align 4
  %8 = icmp sle i32 %7, 57
  br i1 %8, label %9, label %13

9:                                                ; preds = %6
  %10 = load i32, ptr %3, align 4
  %11 = sub nsw i32 %10, 48
  %12 = sext i32 %11 to i64
  store i64 %12, ptr %2, align 8
  br label %29

13:                                               ; preds = %6, %1
  %14 = load i32, ptr %3, align 4
  %15 = icmp sle i32 97, %14
  br i1 %15, label %16, label %24

16:                                               ; preds = %13
  %17 = load i32, ptr %3, align 4
  %18 = icmp sle i32 %17, 102
  br i1 %18, label %19, label %24

19:                                               ; preds = %16
  %20 = load i32, ptr %3, align 4
  %21 = add nsw i32 10, %20
  %22 = sub nsw i32 %21, 97
  %23 = sext i32 %22 to i64
  store i64 %23, ptr %2, align 8
  br label %29

24:                                               ; preds = %16, %13
  %25 = load i32, ptr %3, align 4
  %26 = add nsw i32 10, %25
  %27 = sub nsw i32 %26, 65
  %28 = sext i32 %27 to i64
  store i64 %28, ptr %2, align 8
  br label %29

29:                                               ; preds = %24, %19, %9
  %30 = load i64, ptr %2, align 8
  ret i64 %30
}

; Function Attrs: mustprogress nounwind uwtable
define linkonce_odr noundef nonnull align 1 dereferenceable(1) ptr @_ZN32pxrInternal_v0_24__pxrReserved__21pxr_double_conversion6VectorIKcE4lastEv(ptr noundef nonnull align 8 dereferenceable(12) %0) #0 comdat align 2 {
  %2 = alloca ptr, align 8
  store ptr %0, ptr %2, align 8
  %3 = load ptr, ptr %2, align 8
  %4 = getelementptr inbounds nuw %"class.pxrInternal_v0_24__pxrReserved__::pxr_double_conversion::Vector", ptr %3, i32 0, i32 0
  %5 = load ptr, ptr %4, align 8
  %6 = getelementptr inbounds nuw %"class.pxrInternal_v0_24__pxrReserved__::pxr_double_conversion::Vector", ptr %3, i32 0, i32 1
  %7 = load i32, ptr %6, align 8
  %8 = sub nsw i32 %7, 1
  %9 = sext i32 %8 to i64
  %10 = getelementptr inbounds i8, ptr %5, i64 %9
  ret ptr %10
}

; Function Attrs: mustprogress nounwind uwtable
define linkonce_odr noundef zeroext i1 @_ZNK32pxrInternal_v0_24__pxrReserved__21pxr_double_conversion6VectorIKcE8is_emptyEv(ptr noundef nonnull align 8 dereferenceable(12) %0) #0 comdat align 2 {
  %2 = alloca ptr, align 8
  store ptr %0, ptr %2, align 8
  %3 = load ptr, ptr %2, align 8
  %4 = getelementptr inbounds nuw %"class.pxrInternal_v0_24__pxrReserved__::pxr_double_conversion::Vector", ptr %3, i32 0, i32 1
  %5 = load i32, ptr %4, align 8
  %6 = icmp eq i32 %5, 0
  ret i1 %6
}

; Function Attrs: mustprogress nounwind uwtable
define linkonce_odr void @_ZN32pxrInternal_v0_24__pxrReserved__21pxr_double_conversion6Bignum14EnsureCapacityEi(i32 noundef %0) #0 comdat align 2 {
  %2 = alloca i32, align 4
  store i32 %0, ptr %2, align 4
  %3 = load i32, ptr %2, align 4
  %4 = icmp sgt i32 %3, 128
  br i1 %4, label %5, label %6

5:                                                ; preds = %1
  call void @abort() #4
  unreachable

6:                                                ; preds = %1
  ret void
}

; Function Attrs: mustprogress nounwind uwtable
define linkonce_odr noundef i32 @_ZNK32pxrInternal_v0_24__pxrReserved__21pxr_double_conversion6VectorIKcE6lengthEv(ptr noundef nonnull align 8 dereferenceable(12) %0) #0 comdat align 2 {
  %2 = alloca ptr, align 8
  store ptr %0, ptr %2, align 8
  %3 = load ptr, ptr %2, align 8
  %4 = getelementptr inbounds nuw %"class.pxrInternal_v0_24__pxrReserved__::pxr_double_conversion::Vector", ptr %3, i32 0, i32 1
  %5 = load i32, ptr %4, align 8
  ret i32 %5
}

; Function Attrs: mustprogress nounwind uwtable
define linkonce_odr void @_ZN32pxrInternal_v0_24__pxrReserved__21pxr_double_conversion6Bignum4ZeroEv(ptr noundef nonnull align 4 dereferenceable(516) %0) #0 comdat align 2 {
  %2 = alloca ptr, align 8
  store ptr %0, ptr %2, align 8
  %3 = load ptr, ptr %2, align 8
  %4 = getelementptr inbounds nuw %"class.pxrInternal_v0_24__pxrReserved__::pxr_double_conversion::Bignum", ptr %3, i32 0, i32 0
  store i16 0, ptr %4, align 4
  %5 = getelementptr inbounds nuw %"class.pxrInternal_v0_24__pxrReserved__::pxr_double_conversion::Bignum", ptr %3, i32 0, i32 1
  store i16 0, ptr %5, align 2
  ret void
}

; Function Attrs: mustprogress uwtable
define void @_ZN32pxrInternal_v0_24__pxrReserved__21pxr_double_conversion6Bignum15AssignHexStringENS0_6VectorIKcEE(ptr noundef nonnull align 4 dereferenceable(516) %0, ptr %1, i32 %2) #1 align 2 {
  %4 = alloca %"class.pxrInternal_v0_24__pxrReserved__::pxr_double_conversion::Vector", align 8
  %5 = alloca ptr, align 8
  %6 = alloca i64, align 8
  %7 = alloca i32, align 4
  %8 = getelementptr inbounds nuw { ptr, i32 }, ptr %4, i32 0, i32 0
  store ptr %1, ptr %8, align 8
  %9 = getelementptr inbounds nuw { ptr, i32 }, ptr %4, i32 0, i32 1
  store i32 %2, ptr %9, align 8
  store ptr %0, ptr %5, align 8
  %10 = load ptr, ptr %5, align 8
  call void @_ZN32pxrInternal_v0_24__pxrReserved__21pxr_double_conversion6Bignum4ZeroEv(ptr noundef nonnull align 4 dereferenceable(516) %10)
  %11 = call noundef i32 @_ZNK32pxrInternal_v0_24__pxrReserved__21pxr_double_conversion6VectorIKcE6lengthEv(ptr noundef nonnull align 8 dereferenceable(12) %4)
  %12 = mul nsw i32 %11, 4
  %13 = add nsw i32 %12, 28
  %14 = sub nsw i32 %13, 1
  %15 = sdiv i32 %14, 28
  call void @_ZN32pxrInternal_v0_24__pxrReserved__21pxr_double_conversion6Bignum14EnsureCapacityEi(i32 noundef %15)
  store i64 0, ptr %6, align 8
  store i32 0, ptr %7, align 4
  br label %16

16:                                               ; preds = %46, %3
  %17 = call noundef zeroext i1 @_ZNK32pxrInternal_v0_24__pxrReserved__21pxr_double_conversion6VectorIKcE8is_emptyEv(ptr noundef nonnull align 8 dereferenceable(12) %4)
  %18 = xor i1 %17, true
  br i1 %18, label %19, label %47

19:                                               ; preds = %16
  %20 = call noundef nonnull align 1 dereferenceable(1) ptr @_ZN32pxrInternal_v0_24__pxrReserved__21pxr_double_conversion6VectorIKcE4lastEv(ptr noundef nonnull align 8 dereferenceable(12) %4)
  %21 = load i8, ptr %20, align 1
  %22 = sext i8 %21 to i32
  %23 = call noundef i64 @_ZN32pxrInternal_v0_24__pxrReserved__21pxr_double_conversionL12HexCharValueEi(i32 noundef %22)
  %24 = load i32, ptr %7, align 4
  %25 = zext i32 %24 to i64
  %26 = shl i64 %23, %25
  %27 = load i64, ptr %6, align 8
  %28 = or i64 %27, %26
  store i64 %28, ptr %6, align 8
  %29 = load i32, ptr %7, align 4
  %30 = add nsw i32 %29, 4
  store i32 %30, ptr %7, align 4
  %31 = icmp sge i32 %30, 28
  br i1 %31, label %32, label %45

32:                                               ; preds = %19
  %33 = load i64, ptr %6, align 8
  %34 = and i64 %33, 268435455
  %35 = trunc i64 %34 to i32
  %36 = getelementptr inbounds nuw %"class.pxrInternal_v0_24__pxrReserved__::pxr_double_conversion::Bignum", ptr %10, i32 0, i32 0
  %37 = load i16, ptr %36, align 4
  %38 = add i16 %37, 1
  store i16 %38, ptr %36, align 4
  %39 = sext i16 %37 to i32
  %40 = call noundef nonnull align 4 dereferenceable(4) ptr @_ZN32pxrInternal_v0_24__pxrReserved__21pxr_double_conversion6Bignum8RawBigitEi(ptr noundef nonnull align 4 dereferenceable(516) %10, i32 noundef %39)
  store i32 %35, ptr %40, align 4
  %41 = load i32, ptr %7, align 4
  %42 = sub nsw i32 %41, 28
  store i32 %42, ptr %7, align 4
  %43 = load i64, ptr %6, align 8
  %44 = lshr i64 %43, 28
  store i64 %44, ptr %6, align 8
  br label %45

45:                                               ; preds = %32, %19
  br label %46

46:                                               ; preds = %45
  call void @_ZN32pxrInternal_v0_24__pxrReserved__21pxr_double_conversion6VectorIKcE8pop_backEv(ptr noundef nonnull align 8 dereferenceable(12) %4)
  br label %16, !llvm.loop !12

47:                                               ; preds = %16
  %48 = load i64, ptr %6, align 8
  %49 = icmp ugt i64 %48, 0
  br i1 %49, label %50, label %59

50:                                               ; preds = %47
  %51 = load i64, ptr %6, align 8
  %52 = and i64 %51, 268435455
  %53 = trunc i64 %52 to i32
  %54 = getelementptr inbounds nuw %"class.pxrInternal_v0_24__pxrReserved__::pxr_double_conversion::Bignum", ptr %10, i32 0, i32 0
  %55 = load i16, ptr %54, align 4
  %56 = add i16 %55, 1
  store i16 %56, ptr %54, align 4
  %57 = sext i16 %55 to i32
  %58 = call noundef nonnull align 4 dereferenceable(4) ptr @_ZN32pxrInternal_v0_24__pxrReserved__21pxr_double_conversion6Bignum8RawBigitEi(ptr noundef nonnull align 4 dereferenceable(516) %10, i32 noundef %57)
  store i32 %53, ptr %58, align 4
  br label %59

59:                                               ; preds = %50, %47
  call void @_ZN32pxrInternal_v0_24__pxrReserved__21pxr_double_conversion6Bignum5ClampEv(ptr noundef nonnull align 4 dereferenceable(516) %10)
  ret void
}