; Function Attrs: mustprogress nofree nounwind uwtable
define void @_ZN32pxrInternal_v0_24__pxrReserved__21pxr_double_conversion6Bignum15AssignHexStringENS0_6VectorIKcEE(ptr nocapture noundef nonnull align 4 dereferenceable(516) %0, ptr nocapture readonly %1, i32 %2) local_unnamed_addr #4 align 2 {
  store i16 0, ptr %0, align 4
  %4 = getelementptr inbounds nuw i8, ptr %0, i64 2
  store i16 0, ptr %4, align 2
  %5 = icmp sgt i32 %2, 896
  br i1 %5, label %9, label %_ZN32pxrInternal_v0_24__pxrReserved__21pxr_double_conversion6Bignum14EnsureCapacityEi.exit.preheader

_ZN32pxrInternal_v0_24__pxrReserved__21pxr_double_conversion6Bignum14EnsureCapacityEi.exit.preheader: ; preds = %3
  %invariant.gep = getelementptr i8, ptr %1, i64 -1
  %6 = icmp eq i32 %2, 0
  br i1 %6, label %.critedge.thread3.i, label %.lr.ph

.lr.ph:                                           ; preds = %_ZN32pxrInternal_v0_24__pxrReserved__21pxr_double_conversion6Bignum14EnsureCapacityEi.exit.preheader
  %7 = getelementptr inbounds nuw i8, ptr %0, i64 4
  %8 = sext i32 %2 to i64
  br label %10

9:                                                ; preds = %3
  tail call void @abort() #11
  unreachable

10:                                               ; preds = %.lr.ph, %_ZN32pxrInternal_v0_24__pxrReserved__21pxr_double_conversion6Bignum14EnsureCapacityEi.exit
  %indvars.iv = phi i64 [ %8, %.lr.ph ], [ %indvars.iv.next, %_ZN32pxrInternal_v0_24__pxrReserved__21pxr_double_conversion6Bignum14EnsureCapacityEi.exit ]
  %.017 = phi i32 [ 0, %.lr.ph ], [ %.1, %_ZN32pxrInternal_v0_24__pxrReserved__21pxr_double_conversion6Bignum14EnsureCapacityEi.exit ]
  %.0816 = phi i64 [ 0, %.lr.ph ], [ %.19, %_ZN32pxrInternal_v0_24__pxrReserved__21pxr_double_conversion6Bignum14EnsureCapacityEi.exit ]
  %gep = getelementptr i8, ptr %invariant.gep, i64 %indvars.iv
  %11 = load i8, ptr %gep, align 1
  %12 = sext i8 %11 to i32
  %13 = add nsw i32 %12, -48
  %or.cond.i = icmp ult i32 %13, 10
  br i1 %or.cond.i, label %14, label %16

14:                                               ; preds = %10
  %15 = zext nneg i32 %13 to i64
  br label %_ZN32pxrInternal_v0_24__pxrReserved__21pxr_double_conversionL12HexCharValueEi.exit

16:                                               ; preds = %10
  %17 = add nsw i32 %12, -97
  %or.cond3.i = icmp ult i32 %17, 6
  br i1 %or.cond3.i, label %18, label %21

18:                                               ; preds = %16
  %19 = add nsw i32 %12, -87
  %20 = zext nneg i32 %19 to i64
  br label %_ZN32pxrInternal_v0_24__pxrReserved__21pxr_double_conversionL12HexCharValueEi.exit

21:                                               ; preds = %16
  %22 = add nsw i32 %12, -55
  %23 = sext i32 %22 to i64
  br label %_ZN32pxrInternal_v0_24__pxrReserved__21pxr_double_conversionL12HexCharValueEi.exit

_ZN32pxrInternal_v0_24__pxrReserved__21pxr_double_conversionL12HexCharValueEi.exit: ; preds = %14, %18, %21
  %.0.i = phi i64 [ %15, %14 ], [ %20, %18 ], [ %23, %21 ]
  %24 = zext nneg i32 %.017 to i64
  %25 = shl i64 %.0.i, %24
  %26 = or i64 %25, %.0816
  %27 = add nsw i32 %.017, 4
  %28 = icmp sgt i32 %.017, 23
  br i1 %28, label %29, label %_ZN32pxrInternal_v0_24__pxrReserved__21pxr_double_conversion6Bignum14EnsureCapacityEi.exit

29:                                               ; preds = %_ZN32pxrInternal_v0_24__pxrReserved__21pxr_double_conversionL12HexCharValueEi.exit
  %30 = trunc i64 %26 to i32
  %31 = and i32 %30, 268435455
  %32 = load i16, ptr %0, align 4
  %33 = add i16 %32, 1
  store i16 %33, ptr %0, align 4
  %34 = sext i16 %32 to i64
  %35 = getelementptr inbounds [128 x i32], ptr %7, i64 0, i64 %34
  store i32 %31, ptr %35, align 4
  %36 = add nsw i32 %.017, -24
  %37 = lshr i64 %26, 28
  br label %_ZN32pxrInternal_v0_24__pxrReserved__21pxr_double_conversion6Bignum14EnsureCapacityEi.exit

_ZN32pxrInternal_v0_24__pxrReserved__21pxr_double_conversion6Bignum14EnsureCapacityEi.exit: ; preds = %_ZN32pxrInternal_v0_24__pxrReserved__21pxr_double_conversionL12HexCharValueEi.exit, %29
  %.19 = phi i64 [ %37, %29 ], [ %26, %_ZN32pxrInternal_v0_24__pxrReserved__21pxr_double_conversionL12HexCharValueEi.exit ]
  %.1 = phi i32 [ %36, %29 ], [ %27, %_ZN32pxrInternal_v0_24__pxrReserved__21pxr_double_conversionL12HexCharValueEi.exit ]
  %indvars.iv.next = add nsw i64 %indvars.iv, -1
  %38 = icmp eq i64 %indvars.iv.next, 0
  br i1 %38, label %_ZN32pxrInternal_v0_24__pxrReserved__21pxr_double_conversion6Bignum14EnsureCapacityEi.exit._crit_edge, label %10, !llvm.loop !18

_ZN32pxrInternal_v0_24__pxrReserved__21pxr_double_conversion6Bignum14EnsureCapacityEi.exit._crit_edge: ; preds = %_ZN32pxrInternal_v0_24__pxrReserved__21pxr_double_conversion6Bignum14EnsureCapacityEi.exit
  %.pr.i.pre19.pre = load i16, ptr %0, align 4
  %.not = icmp eq i64 %.19, 0
  br i1 %.not, label %46, label %39

39:                                               ; preds = %_ZN32pxrInternal_v0_24__pxrReserved__21pxr_double_conversion6Bignum14EnsureCapacityEi.exit._crit_edge
  %40 = trunc i64 %.19 to i32
  %41 = and i32 %40, 268435455
  %42 = add i16 %.pr.i.pre19.pre, 1
  store i16 %42, ptr %0, align 4
  %43 = getelementptr inbounds nuw i8, ptr %0, i64 4
  %44 = sext i16 %.pr.i.pre19.pre to i64
  %45 = getelementptr inbounds [128 x i32], ptr %43, i64 0, i64 %44
  store i32 %41, ptr %45, align 4
  %.pr.i.pre = load i16, ptr %0, align 4
  br label %46

46:                                               ; preds = %39, %_ZN32pxrInternal_v0_24__pxrReserved__21pxr_double_conversion6Bignum14EnsureCapacityEi.exit._crit_edge
  %.pr.i = phi i16 [ %.pr.i.pre, %39 ], [ %.pr.i.pre19.pre, %_ZN32pxrInternal_v0_24__pxrReserved__21pxr_double_conversion6Bignum14EnsureCapacityEi.exit._crit_edge ]
  %47 = icmp sgt i16 %.pr.i, 0
  br i1 %47, label %.lr.ph.i, label %.critedge.i

.lr.ph.i:                                         ; preds = %46
  %48 = getelementptr inbounds nuw i8, ptr %0, i64 4
  br label %49

49:                                               ; preds = %57, %.lr.ph.i
  %50 = phi i16 [ %.pr.i, %.lr.ph.i ], [ %58, %57 ]
  %51 = zext nneg i16 %50 to i64
  %52 = add nuw nsw i64 %51, 4294967295
  %53 = and i64 %52, 4294967295
  %54 = getelementptr inbounds [128 x i32], ptr %48, i64 0, i64 %53
  %55 = load i32, ptr %54, align 4
  %56 = icmp eq i32 %55, 0
  br i1 %56, label %57, label %_ZN32pxrInternal_v0_24__pxrReserved__21pxr_double_conversion6Bignum5ClampEv.exit

57:                                               ; preds = %49
  %58 = add nsw i16 %50, -1
  store i16 %58, ptr %0, align 4
  %59 = icmp sgt i16 %50, 1
  br i1 %59, label %49, label %.critedge.thread3.i, !llvm.loop !9

.critedge.i:                                      ; preds = %46
  %60 = icmp eq i16 %.pr.i, 0
  br i1 %60, label %.critedge.thread3.i, label %_ZN32pxrInternal_v0_24__pxrReserved__21pxr_double_conversion6Bignum5ClampEv.exit

.critedge.thread3.i:                              ; preds = %57, %_ZN32pxrInternal_v0_24__pxrReserved__21pxr_double_conversion6Bignum14EnsureCapacityEi.exit.preheader, %.critedge.i
  store i16 0, ptr %4, align 2
  br label %_ZN32pxrInternal_v0_24__pxrReserved__21pxr_double_conversion6Bignum5ClampEv.exit

_ZN32pxrInternal_v0_24__pxrReserved__21pxr_double_conversion6Bignum5ClampEv.exit: ; preds = %49, %.critedge.i, %.critedge.thread3.i
  ret void
}